target datalayout = "e-m:e-p270:32:32-p271:32:32-p272:64:64-i64:64-i128:128-f80:128-n8:16:32:64-S128"
target triple = "x86_64-pc-linux-gnu"

%struct._object = type { %union.anon, ptr }
%union.anon = type { i64 }
%struct.tagCDataObject = type { %struct._object, ptr, i32, ptr, i64, i64, i64, ptr, %union.value }
%union.value = type { x86_fp80 }

; Function Attrs: inlinehint nounwind uwtable
define internal void @UNLOCK_PTR(ptr noundef %0) #2 {
  %2 = alloca ptr, align 8
  store ptr %0, ptr %2, align 8, !tbaa !39
  ret void
}

; Function Attrs: inlinehint nounwind uwtable
define internal void @LOCK_PTR(ptr noundef %0) #2 {
  %2 = alloca ptr, align 8
  store ptr %0, ptr %2, align 8, !tbaa !39
  ret void
}

; Function Attrs: nounwind uwtable
define internal ptr @CharArray_get_value(ptr noundef %0, ptr noundef %1) #0 {
  %3 = alloca ptr, align 8
  %4 = alloca ptr, align 8
  %5 = alloca i64, align 8
  %6 = alloca ptr, align 8
  %7 = alloca ptr, align 8
  %8 = alloca ptr, align 8
  store ptr %0, ptr %3, align 8, !tbaa !7
  store ptr %1, ptr %4, align 8, !tbaa !3
  call void @llvm.lifetime.start.p0(i64 8, ptr %5) #9
  call void @llvm.lifetime.start.p0(i64 8, ptr %6) #9
  call void @llvm.lifetime.start.p0(i64 8, ptr %7) #9
  %9 = load ptr, ptr %3, align 8, !tbaa !7
  store ptr %9, ptr %7, align 8, !tbaa !39
  %10 = load ptr, ptr %7, align 8, !tbaa !39
  call void @LOCK_PTR(ptr noundef %10)
  call void @llvm.lifetime.start.p0(i64 8, ptr %8) #9
  %11 = load ptr, ptr %7, align 8, !tbaa !39
  %12 = getelementptr inbounds nuw %struct.tagCDataObject, ptr %11, i32 0, i32 1
  %13 = load ptr, ptr %12, align 16, !tbaa !46
  store ptr %13, ptr %8, align 8, !tbaa !25
  store i64 0, ptr %5, align 8, !tbaa !23
  br label %14

14:                                               ; preds = %28, %2
  %15 = load i64, ptr %5, align 8, !tbaa !23
  %16 = load ptr, ptr %7, align 8, !tbaa !39
  %17 = getelementptr inbounds nuw %struct.tagCDataObject, ptr %16, i32 0, i32 4
  %18 = load i64, ptr %17, align 8, !tbaa !45
  %19 = icmp slt i64 %15, %18
  br i1 %19, label %20, label %31

20:                                               ; preds = %14
  %21 = load ptr, ptr %8, align 8, !tbaa !25
  %22 = getelementptr i8, ptr %21, i32 1
  store ptr %22, ptr %8, align 8, !tbaa !25
  %23 = load i8, ptr %21, align 1, !tbaa !20
  %24 = sext i8 %23 to i32
  %25 = icmp eq i32 %24, 0
  br i1 %25, label %26, label %27

26:                                               ; preds = %20
  br label %31

27:                                               ; preds = %20
  br label %28

28:                                               ; preds = %27
  %29 = load i64, ptr %5, align 8, !tbaa !23
  %30 = add i64 %29, 1
  store i64 %30, ptr %5, align 8, !tbaa !23
  br label %14, !llvm.loop !175

31:                                               ; preds = %26, %14
  %32 = load ptr, ptr %7, align 8, !tbaa !39
  %33 = getelementptr inbounds nuw %struct.tagCDataObject, ptr %32, i32 0, i32 1
  %34 = load ptr, ptr %33, align 16, !tbaa !46
  %35 = load i64, ptr %5, align 8, !tbaa !23
  %36 = call ptr @PyBytes_FromStringAndSize(ptr noundef %34, i64 noundef %35)
  store ptr %36, ptr %6, align 8, !tbaa !7
  %37 = load ptr, ptr %7, align 8, !tbaa !39
  call void @UNLOCK_PTR(ptr noundef %37)
  %38 = load ptr, ptr %6, align 8, !tbaa !7
  call void @llvm.lifetime.end.p0(i64 8, ptr %8) #9
  call void @llvm.lifetime.end.p0(i64 8, ptr %7) #9
  call void @llvm.lifetime.end.p0(i64 8, ptr %6) #9
  call void @llvm.lifetime.end.p0(i64 8, ptr %5) #9
  ret ptr %38
}