; Function Attrs: nounwind uwtable
define internal ptr @CharArray_get_value(ptr noundef readonly captures(none) %0, ptr readnone captures(none) %1) #0 {
  %3 = getelementptr inbounds nuw i8, ptr %0, i64 16
  %4 = load ptr, ptr %3, align 16, !tbaa !42
  %5 = getelementptr inbounds nuw i8, ptr %0, i64 40
  %6 = load i64, ptr %5, align 8, !tbaa !41
  %7 = icmp sgt i64 %6, 0
  br i1 %7, label %.lr.ph, label %._crit_edge

.lr.ph:                                           ; preds = %2, %10
  %.012 = phi ptr [ %11, %10 ], [ %4, %2 ]
  %.01011 = phi i64 [ %12, %10 ], [ 0, %2 ]
  %8 = load i8, ptr %.012, align 1, !tbaa !23
  %9 = icmp eq i8 %8, 0
  br i1 %9, label %._crit_edge, label %10

10:                                               ; preds = %.lr.ph
  %11 = getelementptr i8, ptr %.012, i64 1
  %12 = add nuw nsw i64 %.01011, 1
  %exitcond.not = icmp eq i64 %12, %6
  br i1 %exitcond.not, label %._crit_edge, label %.lr.ph, !llvm.loop !156

._crit_edge:                                      ; preds = %10, %.lr.ph, %2
  %.010.lcssa = phi i64 [ 0, %2 ], [ %.01011, %.lr.ph ], [ %6, %10 ]
  %13 = tail call ptr @PyBytes_FromStringAndSize(ptr noundef %4, i64 noundef %.010.lcssa) #17
  ret ptr %13
}